target datalayout = "e-m:e-p270:32:32-p271:32:32-p272:64:64-i64:64-i128:128-f80:128-n8:16:32:64-S128"
target triple = "x86_64-pc-linux-gnu"

; Function Attrs: mustprogress nounwind uwtable
define linkonce_odr hidden void @_ZN2cv12cpu_baseline15accSqr_general_IddEEvPKT_PT0_PKhiii(ptr noundef %0, ptr noundef %1, ptr noundef %2, i32 noundef %3, i32 noundef %4, i32 noundef %5) #2 comdat {
  %7 = alloca ptr, align 8
  %8 = alloca ptr, align 8
  %9 = alloca ptr, align 8
  %10 = alloca i32, align 4
  %11 = alloca i32, align 4
  %12 = alloca i32, align 4
  %13 = alloca i32, align 4
  %14 = alloca i32, align 4
  store ptr %0, ptr %7, align 8, !tbaa !29
  store ptr %1, ptr %8, align 8, !tbaa !29
  store ptr %2, ptr %9, align 8, !tbaa !3
  store i32 %3, ptr %10, align 4, !tbaa !10
  store i32 %4, ptr %11, align 4, !tbaa !10
  store i32 %5, ptr %12, align 4, !tbaa !10
  call void @llvm.lifetime.start.p0(i64 4, ptr %13) #4
  %15 = load i32, ptr %12, align 4, !tbaa !10
  store i32 %15, ptr %13, align 4, !tbaa !10
  %16 = load ptr, ptr %9, align 8, !tbaa !3
  %17 = icmp ne ptr %16, null
  br i1 %17, label %47, label %18

18:                                               ; preds = %6
  %19 = load i32, ptr %11, align 4, !tbaa !10
  %20 = load i32, ptr %10, align 4, !tbaa !10
  %21 = mul nsw i32 %20, %19
  store i32 %21, ptr %10, align 4, !tbaa !10
  br label %22

22:                                               ; preds = %43, %18
  %23 = load i32, ptr %13, align 4, !tbaa !10
  %24 = load i32, ptr %10, align 4, !tbaa !10
  %25 = icmp slt i32 %23, %24
  br i1 %25, label %26, label %46

26:                                               ; preds = %22
  %27 = load ptr, ptr %7, align 8, !tbaa !29
  %28 = load i32, ptr %13, align 4, !tbaa !10
  %29 = sext i32 %28 to i64
  %30 = getelementptr inbounds double, ptr %27, i64 %29
  %31 = load double, ptr %30, align 8, !tbaa !31
  %32 = load ptr, ptr %7, align 8, !tbaa !29
  %33 = load i32, ptr %13, align 4, !tbaa !10
  %34 = sext i32 %33 to i64
  %35 = getelementptr inbounds double, ptr %32, i64 %34
  %36 = load double, ptr %35, align 8, !tbaa !31
  %37 = load ptr, ptr %8, align 8, !tbaa !29
  %38 = load i32, ptr %13, align 4, !tbaa !10
  %39 = sext i32 %38 to i64
  %40 = getelementptr inbounds double, ptr %37, i64 %39
  %41 = load double, ptr %40, align 8, !tbaa !31
  %42 = call double @llvm.fmuladd.f64(double %31, double %36, double %41)
  store double %42, ptr %40, align 8, !tbaa !31
  br label %43

43:                                               ; preds = %26
  %44 = load i32, ptr %13, align 4, !tbaa !10
  %45 = add nsw i32 %44, 1
  store i32 %45, ptr %13, align 4, !tbaa !10
  br label %22, !llvm.loop !63

46:                                               ; preds = %22
  br label %111

47:                                               ; preds = %6
  %48 = load i32, ptr %13, align 4, !tbaa !10
  %49 = load i32, ptr %11, align 4, !tbaa !10
  %50 = mul nsw i32 %48, %49
  %51 = load ptr, ptr %7, align 8, !tbaa !29
  %52 = sext i32 %50 to i64
  %53 = getelementptr inbounds double, ptr %51, i64 %52
  store ptr %53, ptr %7, align 8, !tbaa !29
  %54 = load i32, ptr %13, align 4, !tbaa !10
  %55 = load i32, ptr %11, align 4, !tbaa !10
  %56 = mul nsw i32 %54, %55
  %57 = load ptr, ptr %8, align 8, !tbaa !29
  %58 = sext i32 %56 to i64
  %59 = getelementptr inbounds double, ptr %57, i64 %58
  store ptr %59, ptr %8, align 8, !tbaa !29
  br label %60

60:                                               ; preds = %99, %47
  %61 = load i32, ptr %13, align 4, !tbaa !10
  %62 = load i32, ptr %10, align 4, !tbaa !10
  %63 = icmp slt i32 %61, %62
  br i1 %63, label %64, label %110

64:                                               ; preds = %60
  %65 = load ptr, ptr %9, align 8, !tbaa !3
  %66 = load i32, ptr %13, align 4, !tbaa !10
  %67 = sext i32 %66 to i64
  %68 = getelementptr inbounds i8, ptr %65, i64 %67
  %69 = load i8, ptr %68, align 1, !tbaa !12
  %70 = icmp ne i8 %69, 0
  br i1 %70, label %71, label %98

71:                                               ; preds = %64
  call void @llvm.lifetime.start.p0(i64 4, ptr %14) #4
  store i32 0, ptr %14, align 4, !tbaa !10
  br label %72

72:                                               ; preds = %94, %71
  %73 = load i32, ptr %14, align 4, !tbaa !10
  %74 = load i32, ptr %11, align 4, !tbaa !10
  %75 = icmp slt i32 %73, %74
  br i1 %75, label %77, label %76

76:                                               ; preds = %72
  call void @llvm.lifetime.end.p0(i64 4, ptr %14) #4
  br label %97

77:                                               ; preds = %72
  %78 = load ptr, ptr %7, align 8, !tbaa !29
  %79 = load i32, ptr %14, align 4, !tbaa !10
  %80 = sext i32 %79 to i64
  %81 = getelementptr inbounds double, ptr %78, i64 %80
  %82 = load double, ptr %81, align 8, !tbaa !31
  %83 = load ptr, ptr %7, align 8, !tbaa !29
  %84 = load i32, ptr %14, align 4, !tbaa !10
  %85 = sext i32 %84 to i64
  %86 = getelementptr inbounds double, ptr %83, i64 %85
  %87 = load double, ptr %86, align 8, !tbaa !31
  %88 = load ptr, ptr %8, align 8, !tbaa !29
  %89 = load i32, ptr %14, align 4, !tbaa !10
  %90 = sext i32 %89 to i64
  %91 = getelementptr inbounds double, ptr %88, i64 %90
  %92 = load double, ptr %91, align 8, !tbaa !31
  %93 = call double @llvm.fmuladd.f64(double %82, double %87, double %92)
  store double %93, ptr %91, align 8, !tbaa !31
  br label %94

94:                                               ; preds = %77
  %95 = load i32, ptr %14, align 4, !tbaa !10
  %96 = add nsw i32 %95, 1
  store i32 %96, ptr %14, align 4, !tbaa !10
  br label %72, !llvm.loop !64

97:                                               ; preds = %76
  br label %98

98:                                               ; preds = %97, %64
  br label %99

99:                                               ; preds = %98
  %100 = load i32, ptr %13, align 4, !tbaa !10
  %101 = add nsw i32 %100, 1
  store i32 %101, ptr %13, align 4, !tbaa !10
  %102 = load i32, ptr %11, align 4, !tbaa !10
  %103 = load ptr, ptr %7, align 8, !tbaa !29
  %104 = sext i32 %102 to i64
  %105 = getelementptr inbounds double, ptr %103, i64 %104
  store ptr %105, ptr %7, align 8, !tbaa !29
  %106 = load i32, ptr %11, align 4, !tbaa !10
  %107 = load ptr, ptr %8, align 8, !tbaa !29
  %108 = sext i32 %106 to i64
  %109 = getelementptr inbounds double, ptr %107, i64 %108
  store ptr %109, ptr %8, align 8, !tbaa !29
  br label %60, !llvm.loop !65

110:                                              ; preds = %60
  br label %111

111:                                              ; preds = %110, %46
  call void @llvm.lifetime.end.p0(i64 4, ptr %13) #4
  ret void
}

; Function Attrs: mustprogress uwtable
define hidden void @_ZN2cv12cpu_baseline12accSqr_simd_EPKdPdPKhii(ptr noundef %0, ptr noundef %1, ptr noundef %2, i32 noundef %3, i32 noundef %4) #0 {
  %6 = alloca ptr, align 8
  %7 = alloca ptr, align 8
  %8 = alloca ptr, align 8
  %9 = alloca i32, align 4
  %10 = alloca i32, align 4
  %11 = alloca i32, align 4
  store ptr %0, ptr %6, align 8, !tbaa !29
  store ptr %1, ptr %7, align 8, !tbaa !29
  store ptr %2, ptr %8, align 8, !tbaa !3
  store i32 %3, ptr %9, align 4, !tbaa !10
  store i32 %4, ptr %10, align 4, !tbaa !10
  call void @llvm.lifetime.start.p0(i64 4, ptr %11) #4
  store i32 0, ptr %11, align 4, !tbaa !10
  %12 = load ptr, ptr %6, align 8, !tbaa !29
  %13 = load ptr, ptr %7, align 8, !tbaa !29
  %14 = load ptr, ptr %8, align 8, !tbaa !3
  %15 = load i32, ptr %9, align 4, !tbaa !10
  %16 = load i32, ptr %10, align 4, !tbaa !10
  %17 = load i32, ptr %11, align 4, !tbaa !10
  call void @_ZN2cv12cpu_baseline15accSqr_general_IddEEvPKT_PT0_PKhiii(ptr noundef %12, ptr noundef %13, ptr noundef %14, i32 noundef %15, i32 noundef %16, i32 noundef %17)
  call void @llvm.lifetime.end.p0(i64 4, ptr %11) #4
  ret void
}

; Function Attrs: mustprogress uwtable
define hidden void @_ZN2cv10accSqr_64fEPKdPdPKhii(ptr noundef %0, ptr noundef %1, ptr noundef %2, i32 noundef %3, i32 noundef %4) #0 {
  %6 = alloca ptr, align 8
  %7 = alloca ptr, align 8
  %8 = alloca ptr, align 8
  %9 = alloca i32, align 4
  %10 = alloca i32, align 4
  store ptr %0, ptr %6, align 8, !tbaa !29
  store ptr %1, ptr %7, align 8, !tbaa !29
  store ptr %2, ptr %8, align 8, !tbaa !3
  store i32 %3, ptr %9, align 4, !tbaa !10
  store i32 %4, ptr %10, align 4, !tbaa !10
  %11 = load ptr, ptr %6, align 8, !tbaa !29
  %12 = load ptr, ptr %7, align 8, !tbaa !29
  %13 = load ptr, ptr %8, align 8, !tbaa !3
  %14 = load i32, ptr %9, align 4, !tbaa !10
  %15 = load i32, ptr %10, align 4, !tbaa !10
  call void @_ZN2cv12cpu_baseline12accSqr_simd_EPKdPdPKhii(ptr noundef %11, ptr noundef %12, ptr noundef %13, i32 noundef %14, i32 noundef %15)
  ret void
}